target datalayout = "e-m:e-p270:32:32-p271:32:32-p272:64:64-i64:64-i128:128-f80:128-n8:16:32:64-S128"
target triple = "x86_64-pc-linux-gnu"

@hf_link_param_gen = internal global i32 0, align 4
@hf_link_param_qos = internal global i32 0, align 4
@hf_link_param_gg = internal global i32 0, align 4
@hf_link_param_edge = internal global i32 0, align 4
@hf_link_param_eth = internal global i32 0, align 4
@hf_link_param_802_11 = internal global i32 0, align 4
@hf_link_param_c2k = internal global i32 0, align 4
@hf_link_param_fdd = internal global i32 0, align 4
@hf_link_param_hrpd = internal global i32 0, align 4
@hf_link_param_802_16 = internal global i32 0, align 4
@hf_link_param_802_20 = internal global i32 0, align 4
@hf_link_param_802_22 = internal global i32 0, align 4
@hf_link_param_value = internal global i32 0, align 4
@hf_num_cos = internal global i32 0, align 4
@ett_min_pk_tx_delay = internal global i32 0, align 4
@ett_avg_pk_tx_delay = internal global i32 0, align 4
@ett_max_pk_tx_delay = internal global i32 0, align 4
@ett_pk_delay_jitter = internal global i32 0, align 4
@ett_pk_loss_rate = internal global i32 0, align 4
@.str.633 = private unnamed_addr constant [16 x i8] c"MIN_PK_TX_DELAY\00", align 1
@.str.634 = private unnamed_addr constant [16 x i8] c"AVG_PK_TX_DELAY\00", align 1
@.str.635 = private unnamed_addr constant [16 x i8] c"MAX_PK_TX_DELAY\00", align 1
@.str.636 = private unnamed_addr constant [16 x i8] c"PK_DELAY_JITTER\00", align 1
@.str.637 = private unnamed_addr constant [13 x i8] c"PK_LOSS_RATE\00", align 1

; Function Attrs: null_pointer_is_valid sspstrong uwtable
define internal signext i16 @dissect_mih_list(ptr noundef %0, i16 noundef signext %1, ptr noundef %2, ptr noundef %3) #0 {
  %5 = alloca ptr, align 8
  %6 = alloca i16, align 2
  %7 = alloca ptr, align 8
  %8 = alloca ptr, align 8
  %9 = alloca i8, align 1
  %10 = alloca i8, align 1
  store ptr %0, ptr %5, align 8
  store i16 %1, ptr %6, align 2
  store ptr %2, ptr %7, align 8
  store ptr %3, ptr %8, align 8
  call void @llvm.lifetime.start.p0(i64 1, ptr %9) #5
  store i8 0, ptr %9, align 1
  call void @llvm.lifetime.start.p0(i64 1, ptr %10) #5
  %11 = load ptr, ptr %5, align 8
  %12 = load i16, ptr %6, align 2
  %13 = sext i16 %12 to i32
  %14 = call zeroext i8 @tvb_get_uint8(ptr noundef %11, i32 noundef %13)
  store i8 %14, ptr %10, align 1
  %15 = load i16, ptr %6, align 2
  %16 = add i16 %15, 1
  store i16 %16, ptr %6, align 2
  store i8 0, ptr %9, align 1
  br label %17

17:                                               ; preds = %29, %4
  %18 = load i8, ptr %9, align 1
  %19 = zext i8 %18 to i32
  %20 = load i8, ptr %10, align 1
  %21 = zext i8 %20 to i32
  %22 = icmp slt i32 %19, %21
  br i1 %22, label %23, label %32

23:                                               ; preds = %17
  %24 = load ptr, ptr %8, align 8
  %25 = load ptr, ptr %5, align 8
  %26 = load i16, ptr %6, align 2
  %27 = load ptr, ptr %7, align 8
  %28 = call signext i16 %24(ptr noundef %25, i16 noundef signext %26, ptr noundef %27)
  store i16 %28, ptr %6, align 2
  br label %29

29:                                               ; preds = %23
  %30 = load i8, ptr %9, align 1
  %31 = add i8 %30, 1
  store i8 %31, ptr %9, align 1
  br label %17, !llvm.loop !13

32:                                               ; preds = %17
  %33 = load i16, ptr %6, align 2
  call void @llvm.lifetime.end.p0(i64 1, ptr %10) #5
  call void @llvm.lifetime.end.p0(i64 1, ptr %9) #5
  ret i16 %33
}

; Function Attrs: null_pointer_is_valid sspstrong uwtable
define internal signext i16 @dissect_link_param_type(ptr noundef %0, i16 noundef signext %1, ptr noundef %2) #0 {
  %4 = alloca ptr, align 8
  %5 = alloca i16, align 2
  %6 = alloca ptr, align 8
  %7 = alloca i8, align 1
  store ptr %0, ptr %4, align 8
  store i16 %1, ptr %5, align 2
  store ptr %2, ptr %6, align 8
  call void @llvm.lifetime.start.p0(i64 1, ptr %7) #5
  %8 = load ptr, ptr %4, align 8
  %9 = load i16, ptr %5, align 2
  %10 = sext i16 %9 to i32
  %11 = call zeroext i8 @tvb_get_uint8(ptr noundef %8, i32 noundef %10)
  store i8 %11, ptr %7, align 1
  %12 = load i16, ptr %5, align 2
  %13 = add i16 %12, 1
  store i16 %13, ptr %5, align 2
  %14 = load i8, ptr %7, align 1
  %15 = zext i8 %14 to i32
  switch i32 %15, label %100 [
    i32 0, label %16
    i32 1, label %23
    i32 2, label %30
    i32 3, label %37
    i32 4, label %44
    i32 5, label %51
    i32 6, label %58
    i32 7, label %65
    i32 8, label %72
    i32 9, label %79
    i32 10, label %86
    i32 11, label %93
  ]

16:                                               ; preds = %3
  %17 = load ptr, ptr %6, align 8
  %18 = load i32, ptr @hf_link_param_gen, align 4
  %19 = load ptr, ptr %4, align 8
  %20 = load i16, ptr %5, align 2
  %21 = sext i16 %20 to i32
  %22 = call ptr @proto_tree_add_item(ptr noundef %17, i32 noundef %18, ptr noundef %19, i32 noundef %21, i32 noundef 1, i32 noundef 0)
  br label %100

23:                                               ; preds = %3
  %24 = load ptr, ptr %6, align 8
  %25 = load i32, ptr @hf_link_param_qos, align 4
  %26 = load ptr, ptr %4, align 8
  %27 = load i16, ptr %5, align 2
  %28 = sext i16 %27 to i32
  %29 = call ptr @proto_tree_add_item(ptr noundef %24, i32 noundef %25, ptr noundef %26, i32 noundef %28, i32 noundef 1, i32 noundef 0)
  br label %100

30:                                               ; preds = %3
  %31 = load ptr, ptr %6, align 8
  %32 = load i32, ptr @hf_link_param_gg, align 4
  %33 = load ptr, ptr %4, align 8
  %34 = load i16, ptr %5, align 2
  %35 = sext i16 %34 to i32
  %36 = call ptr @proto_tree_add_item(ptr noundef %31, i32 noundef %32, ptr noundef %33, i32 noundef %35, i32 noundef 1, i32 noundef 0)
  br label %100

37:                                               ; preds = %3
  %38 = load ptr, ptr %6, align 8
  %39 = load i32, ptr @hf_link_param_edge, align 4
  %40 = load ptr, ptr %4, align 8
  %41 = load i16, ptr %5, align 2
  %42 = sext i16 %41 to i32
  %43 = call ptr @proto_tree_add_item(ptr noundef %38, i32 noundef %39, ptr noundef %40, i32 noundef %42, i32 noundef 1, i32 noundef 0)
  br label %100

44:                                               ; preds = %3
  %45 = load ptr, ptr %6, align 8
  %46 = load i32, ptr @hf_link_param_eth, align 4
  %47 = load ptr, ptr %4, align 8
  %48 = load i16, ptr %5, align 2
  %49 = sext i16 %48 to i32
  %50 = call ptr @proto_tree_add_item(ptr noundef %45, i32 noundef %46, ptr noundef %47, i32 noundef %49, i32 noundef 1, i32 noundef 0)
  br label %100

51:                                               ; preds = %3
  %52 = load ptr, ptr %6, align 8
  %53 = load i32, ptr @hf_link_param_802_11, align 4
  %54 = load ptr, ptr %4, align 8
  %55 = load i16, ptr %5, align 2
  %56 = sext i16 %55 to i32
  %57 = call ptr @proto_tree_add_item(ptr noundef %52, i32 noundef %53, ptr noundef %54, i32 noundef %56, i32 noundef 1, i32 noundef 0)
  br label %100

58:                                               ; preds = %3
  %59 = load ptr, ptr %6, align 8
  %60 = load i32, ptr @hf_link_param_c2k, align 4
  %61 = load ptr, ptr %4, align 8
  %62 = load i16, ptr %5, align 2
  %63 = sext i16 %62 to i32
  %64 = call ptr @proto_tree_add_item(ptr noundef %59, i32 noundef %60, ptr noundef %61, i32 noundef %63, i32 noundef 1, i32 noundef 0)
  br label %100

65:                                               ; preds = %3
  %66 = load ptr, ptr %6, align 8
  %67 = load i32, ptr @hf_link_param_fdd, align 4
  %68 = load ptr, ptr %4, align 8
  %69 = load i16, ptr %5, align 2
  %70 = sext i16 %69 to i32
  %71 = call ptr @proto_tree_add_item(ptr noundef %66, i32 noundef %67, ptr noundef %68, i32 noundef %70, i32 noundef 1, i32 noundef 0)
  br label %100

72:                                               ; preds = %3
  %73 = load ptr, ptr %6, align 8
  %74 = load i32, ptr @hf_link_param_hrpd, align 4
  %75 = load ptr, ptr %4, align 8
  %76 = load i16, ptr %5, align 2
  %77 = sext i16 %76 to i32
  %78 = call ptr @proto_tree_add_item(ptr noundef %73, i32 noundef %74, ptr noundef %75, i32 noundef %77, i32 noundef 1, i32 noundef 0)
  br label %100

79:                                               ; preds = %3
  %80 = load ptr, ptr %6, align 8
  %81 = load i32, ptr @hf_link_param_802_16, align 4
  %82 = load ptr, ptr %4, align 8
  %83 = load i16, ptr %5, align 2
  %84 = sext i16 %83 to i32
  %85 = call ptr @proto_tree_add_item(ptr noundef %80, i32 noundef %81, ptr noundef %82, i32 noundef %84, i32 noundef 1, i32 noundef 0)
  br label %100

86:                                               ; preds = %3
  %87 = load ptr, ptr %6, align 8
  %88 = load i32, ptr @hf_link_param_802_20, align 4
  %89 = load ptr, ptr %4, align 8
  %90 = load i16, ptr %5, align 2
  %91 = sext i16 %90 to i32
  %92 = call ptr @proto_tree_add_item(ptr noundef %87, i32 noundef %88, ptr noundef %89, i32 noundef %91, i32 noundef 1, i32 noundef 0)
  br label %100

93:                                               ; preds = %3
  %94 = load ptr, ptr %6, align 8
  %95 = load i32, ptr @hf_link_param_802_22, align 4
  %96 = load ptr, ptr %4, align 8
  %97 = load i16, ptr %5, align 2
  %98 = sext i16 %97 to i32
  %99 = call ptr @proto_tree_add_item(ptr noundef %94, i32 noundef %95, ptr noundef %96, i32 noundef %98, i32 noundef 1, i32 noundef 0)
  br label %100

100:                                              ; preds = %3, %93, %86, %79, %72, %65, %58, %51, %44, %37, %30, %23, %16
  %101 = load i16, ptr %5, align 2
  %102 = sext i16 %101 to i32
  %103 = add i32 %102, 1
  %104 = trunc i32 %103 to i16
  call void @llvm.lifetime.end.p0(i64 1, ptr %7) #5
  ret i16 %104
}

; Function Attrs: null_pointer_is_valid sspstrong uwtable
define internal signext i16 @dissect_link_param(ptr noundef %0, i16 noundef signext %1, ptr noundef %2) #0 {
  %4 = alloca ptr, align 8
  %5 = alloca i16, align 2
  %6 = alloca ptr, align 8
  %7 = alloca ptr, align 8
  store ptr %0, ptr %4, align 8
  store i16 %1, ptr %5, align 2
  store ptr %2, ptr %6, align 8
  %8 = load ptr, ptr %4, align 8
  %9 = load i16, ptr %5, align 2
  %10 = load ptr, ptr %6, align 8
  %11 = call signext i16 @dissect_link_param_type(ptr noundef %8, i16 noundef signext %9, ptr noundef %10)
  store i16 %11, ptr %5, align 2
  %12 = load ptr, ptr %4, align 8
  %13 = load i16, ptr %5, align 2
  %14 = sext i16 %13 to i32
  %15 = call zeroext i8 @tvb_get_uint8(ptr noundef %12, i32 noundef %14)
  %16 = icmp ne i8 %15, 0
  br i1 %16, label %30, label %17

17:                                               ; preds = %3
  %18 = load i16, ptr %5, align 2
  %19 = add i16 %18, 1
  store i16 %19, ptr %5, align 2
  %20 = load ptr, ptr %6, align 8
  %21 = load i32, ptr @hf_link_param_value, align 4
  %22 = load ptr, ptr %4, align 8
  %23 = load i16, ptr %5, align 2
  %24 = sext i16 %23 to i32
  %25 = call ptr @proto_tree_add_item(ptr noundef %20, i32 noundef %21, ptr noundef %22, i32 noundef %24, i32 noundef 2, i32 noundef 0)
  %26 = load i16, ptr %5, align 2
  %27 = sext i16 %26 to i32
  %28 = add i32 %27, 2
  %29 = trunc i32 %28 to i16
  store i16 %29, ptr %5, align 2
  br label %126

30:                                               ; preds = %3
  call void @llvm.lifetime.start.p0(i64 8, ptr %7) #5
  %31 = load i16, ptr %5, align 2
  %32 = add i16 %31, 1
  store i16 %32, ptr %5, align 2
  %33 = load ptr, ptr %4, align 8
  %34 = load i16, ptr %5, align 2
  %35 = sext i16 %34 to i32
  %36 = call zeroext i8 @tvb_get_uint8(ptr noundef %33, i32 noundef %35)
  %37 = zext i8 %36 to i32
  switch i32 %37, label %125 [
    i32 0, label %38
    i32 1, label %50
    i32 2, label %65
    i32 3, label %80
    i32 4, label %95
    i32 5, label %110
  ]

38:                                               ; preds = %30
  %39 = load ptr, ptr %6, align 8
  %40 = load i32, ptr @hf_num_cos, align 4
  %41 = load ptr, ptr %4, align 8
  %42 = load i16, ptr %5, align 2
  %43 = sext i16 %42 to i32
  %44 = add i32 %43, 1
  %45 = call ptr @proto_tree_add_item(ptr noundef %39, i32 noundef %40, ptr noundef %41, i32 noundef %44, i32 noundef 1, i32 noundef 0)
  %46 = load i16, ptr %5, align 2
  %47 = sext i16 %46 to i32
  %48 = add i32 %47, 2
  %49 = trunc i32 %48 to i16
  store i16 %49, ptr %5, align 2
  br label %125

50:                                               ; preds = %30
  %51 = load ptr, ptr %6, align 8
  %52 = load ptr, ptr %4, align 8
  %53 = load i16, ptr %5, align 2
  %54 = sext i16 %53 to i32
  %55 = add i32 %54, 1
  %56 = load i32, ptr @ett_min_pk_tx_delay, align 4
  %57 = call ptr @proto_tree_add_subtree(ptr noundef %51, ptr noundef %52, i32 noundef %55, i32 noundef 1, i32 noundef %56, ptr noundef null, ptr noundef @.str.633)
  store ptr %57, ptr %7, align 8
  %58 = load ptr, ptr %4, align 8
  %59 = load i16, ptr %5, align 2
  %60 = sext i16 %59 to i32
  %61 = add i32 %60, 1
  %62 = trunc i32 %61 to i16
  %63 = load ptr, ptr %7, align 8
  %64 = call signext i16 @dissect_mih_list(ptr noundef %58, i16 noundef signext %62, ptr noundef %63, ptr noundef @dissect_qos_val)
  store i16 %64, ptr %5, align 2
  br label %125

65:                                               ; preds = %30
  %66 = load ptr, ptr %6, align 8
  %67 = load ptr, ptr %4, align 8
  %68 = load i16, ptr %5, align 2
  %69 = sext i16 %68 to i32
  %70 = add i32 %69, 1
  %71 = load i32, ptr @ett_avg_pk_tx_delay, align 4
  %72 = call ptr @proto_tree_add_subtree(ptr noundef %66, ptr noundef %67, i32 noundef %70, i32 noundef 1, i32 noundef %71, ptr noundef null, ptr noundef @.str.634)
  store ptr %72, ptr %7, align 8
  %73 = load ptr, ptr %4, align 8
  %74 = load i16, ptr %5, align 2
  %75 = sext i16 %74 to i32
  %76 = add i32 %75, 1
  %77 = trunc i32 %76 to i16
  %78 = load ptr, ptr %7, align 8
  %79 = call signext i16 @dissect_mih_list(ptr noundef %73, i16 noundef signext %77, ptr noundef %78, ptr noundef @dissect_qos_val)
  store i16 %79, ptr %5, align 2
  br label %125

80:                                               ; preds = %30
  %81 = load ptr, ptr %6, align 8
  %82 = load ptr, ptr %4, align 8
  %83 = load i16, ptr %5, align 2
  %84 = sext i16 %83 to i32
  %85 = add i32 %84, 1
  %86 = load i32, ptr @ett_max_pk_tx_delay, align 4
  %87 = call ptr @proto_tree_add_subtree(ptr noundef %81, ptr noundef %82, i32 noundef %85, i32 noundef 1, i32 noundef %86, ptr noundef null, ptr noundef @.str.635)
  store ptr %87, ptr %7, align 8
  %88 = load ptr, ptr %4, align 8
  %89 = load i16, ptr %5, align 2
  %90 = sext i16 %89 to i32
  %91 = add i32 %90, 1
  %92 = trunc i32 %91 to i16
  %93 = load ptr, ptr %7, align 8
  %94 = call signext i16 @dissect_mih_list(ptr noundef %88, i16 noundef signext %92, ptr noundef %93, ptr noundef @dissect_qos_val)
  store i16 %94, ptr %5, align 2
  br label %125

95:                                               ; preds = %30
  %96 = load ptr, ptr %6, align 8
  %97 = load ptr, ptr %4, align 8
  %98 = load i16, ptr %5, align 2
  %99 = sext i16 %98 to i32
  %100 = add i32 %99, 1
  %101 = load i32, ptr @ett_pk_delay_jitter, align 4
  %102 = call ptr @proto_tree_add_subtree(ptr noundef %96, ptr noundef %97, i32 noundef %100, i32 noundef 1, i32 noundef %101, ptr noundef null, ptr noundef @.str.636)
  store ptr %102, ptr %7, align 8
  %103 = load ptr, ptr %4, align 8
  %104 = load i16, ptr %5, align 2
  %105 = sext i16 %104 to i32
  %106 = add i32 %105, 1
  %107 = trunc i32 %106 to i16
  %108 = load ptr, ptr %7, align 8
  %109 = call signext i16 @dissect_mih_list(ptr noundef %103, i16 noundef signext %107, ptr noundef %108, ptr noundef @dissect_qos_val)
  store i16 %109, ptr %5, align 2
  br label %125

110:                                              ; preds = %30
  %111 = load ptr, ptr %6, align 8
  %112 = load ptr, ptr %4, align 8
  %113 = load i16, ptr %5, align 2
  %114 = sext i16 %113 to i32
  %115 = add i32 %114, 1
  %116 = load i32, ptr @ett_pk_loss_rate, align 4
  %117 = call ptr @proto_tree_add_subtree(ptr noundef %111, ptr noundef %112, i32 noundef %115, i32 noundef 1, i32 noundef %116, ptr noundef null, ptr noundef @.str.637)
  store ptr %117, ptr %7, align 8
  %118 = load ptr, ptr %4, align 8
  %119 = load i16, ptr %5, align 2
  %120 = sext i16 %119 to i32
  %121 = add i32 %120, 1
  %122 = trunc i32 %121 to i16
  %123 = load ptr, ptr %7, align 8
  %124 = call signext i16 @dissect_mih_list(ptr noundef %118, i16 noundef signext %122, ptr noundef %123, ptr noundef @dissect_qos_val)
  store i16 %124, ptr %5, align 2
  br label %125

125:                                              ; preds = %30, %110, %95, %80, %65, %50, %38
  call void @llvm.lifetime.end.p0(i64 8, ptr %7) #5
  br label %126

126:                                              ; preds = %125, %17
  %127 = load i16, ptr %5, align 2
  ret i16 %127
}