; Function Attrs: null_pointer_is_valid sspstrong uwtable
define internal fastcc signext i16 @dissect_link_param(ptr noundef %0, i16 noundef signext %1, ptr noundef %2) unnamed_addr #0 {
  %4 = sext i16 %1 to i32
  %5 = tail call zeroext i8 @tvb_get_uint8(ptr noundef %0, i32 noundef %4)
  %6 = icmp ult i8 %5, 12
  br i1 %6, label %switch.lookup, label %dissect_link_param_type.exit

switch.lookup:                                    ; preds = %3
  %7 = add i16 %1, 1
  %8 = zext nneg i8 %5 to i64
  %switch.gep = getelementptr inbounds nuw [12 x ptr], ptr @switch.table.dissect_link_param, i64 0, i64 %8
  %switch.load = load ptr, ptr %switch.gep, align 8
  %9 = load i32, ptr %switch.load, align 4
  %10 = sext i16 %7 to i32
  %11 = tail call ptr @proto_tree_add_item(ptr noundef %2, i32 noundef %9, ptr noundef %0, i32 noundef %10, i32 noundef 1, i32 noundef 0)
  br label %dissect_link_param_type.exit

dissect_link_param_type.exit:                     ; preds = %3, %switch.lookup
  %12 = add i16 %1, 2
  %13 = sext i16 %12 to i32
  %14 = tail call zeroext i8 @tvb_get_uint8(ptr noundef %0, i32 noundef %13)
  %.not = icmp eq i8 %14, 0
  %15 = add i16 %1, 3
  br i1 %.not, label %16, label %21

16:                                               ; preds = %dissect_link_param_type.exit
  %17 = load i32, ptr @hf_link_param_value, align 4
  %18 = sext i16 %15 to i32
  %19 = tail call ptr @proto_tree_add_item(ptr noundef %2, i32 noundef %17, ptr noundef %0, i32 noundef %18, i32 noundef 2, i32 noundef 0)
  %20 = add i16 %1, 5
  br label %dissect_mih_list.exit

21:                                               ; preds = %dissect_link_param_type.exit
  %22 = sext i16 %15 to i32
  %23 = tail call zeroext i8 @tvb_get_uint8(ptr noundef %0, i32 noundef %22)
  switch i8 %23, label %dissect_mih_list.exit [
    i8 0, label %24
    i8 1, label %29
    i8 2, label %46
    i8 3, label %63
    i8 4, label %80
    i8 5, label %97
  ]

24:                                               ; preds = %21
  %25 = load i32, ptr @hf_num_cos, align 4
  %26 = add nsw i32 %22, 1
  %27 = tail call ptr @proto_tree_add_item(ptr noundef %2, i32 noundef %25, ptr noundef %0, i32 noundef %26, i32 noundef 1, i32 noundef 0)
  %28 = add i16 %1, 5
  br label %dissect_mih_list.exit

29:                                               ; preds = %21
  %30 = add nsw i32 %22, 1
  %31 = load i32, ptr @ett_min_pk_tx_delay, align 4
  %32 = tail call ptr @proto_tree_add_subtree(ptr noundef %2, ptr noundef %0, i32 noundef %30, i32 noundef 1, i32 noundef %31, ptr noundef null, ptr noundef nonnull @.str.633)
  %33 = trunc i32 %30 to i16
  %sext78 = shl i32 %30, 16
  %34 = ashr exact i32 %sext78, 16
  %35 = tail call zeroext i8 @tvb_get_uint8(ptr noundef %0, i32 noundef %34)
  %36 = add i16 %33, 1
  %.not.i = icmp eq i8 %35, 0
  br i1 %.not.i, label %dissect_mih_list.exit, label %.lr.ph.i

.lr.ph.i:                                         ; preds = %29, %.lr.ph.i
  %.012.i = phi i16 [ %44, %.lr.ph.i ], [ %36, %29 ]
  %.01011.i = phi i8 [ %45, %.lr.ph.i ], [ 0, %29 ]
  %37 = load i32, ptr @hf_cos_id, align 4
  %38 = sext i16 %.012.i to i32
  %39 = tail call ptr @proto_tree_add_item(ptr noundef %32, i32 noundef %37, ptr noundef %0, i32 noundef %38, i32 noundef 1, i32 noundef 0)
  %40 = add i16 %.012.i, 1
  %41 = load i32, ptr @hf_cos_value, align 4
  %42 = sext i16 %40 to i32
  %43 = tail call ptr @proto_tree_add_item(ptr noundef %32, i32 noundef %41, ptr noundef %0, i32 noundef %42, i32 noundef 2, i32 noundef 0)
  %44 = add i16 %.012.i, 3
  %45 = add nuw i8 %.01011.i, 1
  %exitcond.not.i = icmp eq i8 %45, %35
  br i1 %exitcond.not.i, label %dissect_mih_list.exit, label %.lr.ph.i, !llvm.loop !11

46:                                               ; preds = %21
  %47 = add nsw i32 %22, 1
  %48 = load i32, ptr @ett_avg_pk_tx_delay, align 4
  %49 = tail call ptr @proto_tree_add_subtree(ptr noundef %2, ptr noundef %0, i32 noundef %47, i32 noundef 1, i32 noundef %48, ptr noundef null, ptr noundef nonnull @.str.634)
  %50 = trunc i32 %47 to i16
  %sext77 = shl i32 %47, 16
  %51 = ashr exact i32 %sext77, 16
  %52 = tail call zeroext i8 @tvb_get_uint8(ptr noundef %0, i32 noundef %51)
  %53 = add i16 %50, 1
  %.not.i47 = icmp eq i8 %52, 0
  br i1 %.not.i47, label %dissect_mih_list.exit, label %.lr.ph.i48

.lr.ph.i48:                                       ; preds = %46, %.lr.ph.i48
  %.012.i49 = phi i16 [ %61, %.lr.ph.i48 ], [ %53, %46 ]
  %.01011.i50 = phi i8 [ %62, %.lr.ph.i48 ], [ 0, %46 ]
  %54 = load i32, ptr @hf_cos_id, align 4
  %55 = sext i16 %.012.i49 to i32
  %56 = tail call ptr @proto_tree_add_item(ptr noundef %49, i32 noundef %54, ptr noundef %0, i32 noundef %55, i32 noundef 1, i32 noundef 0)
  %57 = add i16 %.012.i49, 1
  %58 = load i32, ptr @hf_cos_value, align 4
  %59 = sext i16 %57 to i32
  %60 = tail call ptr @proto_tree_add_item(ptr noundef %49, i32 noundef %58, ptr noundef %0, i32 noundef %59, i32 noundef 2, i32 noundef 0)
  %61 = add i16 %.012.i49, 3
  %62 = add nuw i8 %.01011.i50, 1
  %exitcond.not.i51 = icmp eq i8 %62, %52
  br i1 %exitcond.not.i51, label %dissect_mih_list.exit, label %.lr.ph.i48, !llvm.loop !11

63:                                               ; preds = %21
  %64 = add nsw i32 %22, 1
  %65 = load i32, ptr @ett_max_pk_tx_delay, align 4
  %66 = tail call ptr @proto_tree_add_subtree(ptr noundef %2, ptr noundef %0, i32 noundef %64, i32 noundef 1, i32 noundef %65, ptr noundef null, ptr noundef nonnull @.str.635)
  %67 = trunc i32 %64 to i16
  %sext76 = shl i32 %64, 16
  %68 = ashr exact i32 %sext76, 16
  %69 = tail call zeroext i8 @tvb_get_uint8(ptr noundef %0, i32 noundef %68)
  %70 = add i16 %67, 1
  %.not.i54 = icmp eq i8 %69, 0
  br i1 %.not.i54, label %dissect_mih_list.exit, label %.lr.ph.i55

.lr.ph.i55:                                       ; preds = %63, %.lr.ph.i55
  %.012.i56 = phi i16 [ %78, %.lr.ph.i55 ], [ %70, %63 ]
  %.01011.i57 = phi i8 [ %79, %.lr.ph.i55 ], [ 0, %63 ]
  %71 = load i32, ptr @hf_cos_id, align 4
  %72 = sext i16 %.012.i56 to i32
  %73 = tail call ptr @proto_tree_add_item(ptr noundef %66, i32 noundef %71, ptr noundef %0, i32 noundef %72, i32 noundef 1, i32 noundef 0)
  %74 = add i16 %.012.i56, 1
  %75 = load i32, ptr @hf_cos_value, align 4
  %76 = sext i16 %74 to i32
  %77 = tail call ptr @proto_tree_add_item(ptr noundef %66, i32 noundef %75, ptr noundef %0, i32 noundef %76, i32 noundef 2, i32 noundef 0)
  %78 = add i16 %.012.i56, 3
  %79 = add nuw i8 %.01011.i57, 1
  %exitcond.not.i58 = icmp eq i8 %79, %69
  br i1 %exitcond.not.i58, label %dissect_mih_list.exit, label %.lr.ph.i55, !llvm.loop !11

80:                                               ; preds = %21
  %81 = add nsw i32 %22, 1
  %82 = load i32, ptr @ett_pk_delay_jitter, align 4
  %83 = tail call ptr @proto_tree_add_subtree(ptr noundef %2, ptr noundef %0, i32 noundef %81, i32 noundef 1, i32 noundef %82, ptr noundef null, ptr noundef nonnull @.str.636)
  %84 = trunc i32 %81 to i16
  %sext75 = shl i32 %81, 16
  %85 = ashr exact i32 %sext75, 16
  %86 = tail call zeroext i8 @tvb_get_uint8(ptr noundef %0, i32 noundef %85)
  %87 = add i16 %84, 1
  %.not.i61 = icmp eq i8 %86, 0
  br i1 %.not.i61, label %dissect_mih_list.exit, label %.lr.ph.i62

.lr.ph.i62:                                       ; preds = %80, %.lr.ph.i62
  %.012.i63 = phi i16 [ %95, %.lr.ph.i62 ], [ %87, %80 ]
  %.01011.i64 = phi i8 [ %96, %.lr.ph.i62 ], [ 0, %80 ]
  %88 = load i32, ptr @hf_cos_id, align 4
  %89 = sext i16 %.012.i63 to i32
  %90 = tail call ptr @proto_tree_add_item(ptr noundef %83, i32 noundef %88, ptr noundef %0, i32 noundef %89, i32 noundef 1, i32 noundef 0)
  %91 = add i16 %.012.i63, 1
  %92 = load i32, ptr @hf_cos_value, align 4
  %93 = sext i16 %91 to i32
  %94 = tail call ptr @proto_tree_add_item(ptr noundef %83, i32 noundef %92, ptr noundef %0, i32 noundef %93, i32 noundef 2, i32 noundef 0)
  %95 = add i16 %.012.i63, 3
  %96 = add nuw i8 %.01011.i64, 1
  %exitcond.not.i65 = icmp eq i8 %96, %86
  br i1 %exitcond.not.i65, label %dissect_mih_list.exit, label %.lr.ph.i62, !llvm.loop !11

97:                                               ; preds = %21
  %98 = add nsw i32 %22, 1
  %99 = load i32, ptr @ett_pk_loss_rate, align 4
  %100 = tail call ptr @proto_tree_add_subtree(ptr noundef %2, ptr noundef %0, i32 noundef %98, i32 noundef 1, i32 noundef %99, ptr noundef null, ptr noundef nonnull @.str.637)
  %101 = trunc i32 %98 to i16
  %sext = shl i32 %98, 16
  %102 = ashr exact i32 %sext, 16
  %103 = tail call zeroext i8 @tvb_get_uint8(ptr noundef %0, i32 noundef %102)
  %104 = add i16 %101, 1
  %.not.i68 = icmp eq i8 %103, 0
  br i1 %.not.i68, label %dissect_mih_list.exit, label %.lr.ph.i69

.lr.ph.i69:                                       ; preds = %97, %.lr.ph.i69
  %.012.i70 = phi i16 [ %112, %.lr.ph.i69 ], [ %104, %97 ]
  %.01011.i71 = phi i8 [ %113, %.lr.ph.i69 ], [ 0, %97 ]
  %105 = load i32, ptr @hf_cos_id, align 4
  %106 = sext i16 %.012.i70 to i32
  %107 = tail call ptr @proto_tree_add_item(ptr noundef %100, i32 noundef %105, ptr noundef %0, i32 noundef %106, i32 noundef 1, i32 noundef 0)
  %108 = add i16 %.012.i70, 1
  %109 = load i32, ptr @hf_cos_value, align 4
  %110 = sext i16 %108 to i32
  %111 = tail call ptr @proto_tree_add_item(ptr noundef %100, i32 noundef %109, ptr noundef %0, i32 noundef %110, i32 noundef 2, i32 noundef 0)
  %112 = add i16 %.012.i70, 3
  %113 = add nuw i8 %.01011.i71, 1
  %exitcond.not.i72 = icmp eq i8 %113, %103
  br i1 %exitcond.not.i72, label %dissect_mih_list.exit, label %.lr.ph.i69, !llvm.loop !11

dissect_mih_list.exit:                            ; preds = %.lr.ph.i69, %.lr.ph.i62, %.lr.ph.i55, %.lr.ph.i48, %.lr.ph.i, %97, %80, %63, %46, %29, %21, %24, %16
  %.0 = phi i16 [ %20, %16 ], [ %15, %21 ], [ %28, %24 ], [ %36, %29 ], [ %53, %46 ], [ %70, %63 ], [ %87, %80 ], [ %104, %97 ], [ %44, %.lr.ph.i ], [ %61, %.lr.ph.i48 ], [ %78, %.lr.ph.i55 ], [ %95, %.lr.ph.i62 ], [ %112, %.lr.ph.i69 ]
  ret i16 %.0
}